target datalayout = "e-m:e-p270:32:32-p271:32:32-p272:64:64-i64:64-i128:128-f80:128-n8:16:32:64-S128"
target triple = "x86_64-pc-linux-gnu"

%struct._object = type { %union.anon, ptr }
%union.anon = type { i64 }
%union.sock_addr = type { %struct.sockaddr_storage }
%struct.sockaddr_storage = type { i16, [118 x i8], i64 }
%struct.Py_buffer = type { ptr, ptr, i64, i64, i32, i32, ptr, ptr, ptr, ptr, ptr }
%struct.PySocketSockObject = type { %struct._object, i32, i32, i32, i32, ptr, i64, ptr }
%struct.sock_sendto = type { ptr, i64, i32, i32, ptr, i64 }

@PyExc_TypeError = external global ptr, align 8
@.str.546 = private unnamed_addr constant [7 x i8] c"sendto\00", align 1
@.str.562 = private unnamed_addr constant [3 x i8] c"OO\00", align 1
@.str.620 = private unnamed_addr constant [11 x i8] c"y*O:sendto\00", align 1
@.str.621 = private unnamed_addr constant [12 x i8] c"y*iO:sendto\00", align 1
@.str.622 = private unnamed_addr constant [44 x i8] c"sendto() takes 2 or 3 arguments (%zd given)\00", align 1
@.str.623 = private unnamed_addr constant [14 x i8] c"socket.sendto\00", align 1

; Function Attrs: nounwind uwtable
define internal i32 @sock_call(ptr noundef %0, i32 noundef %1, ptr noundef %2, ptr noundef %3) #0 {
  %5 = alloca ptr, align 8
  %6 = alloca i32, align 4
  %7 = alloca ptr, align 8
  %8 = alloca ptr, align 8
  store ptr %0, ptr %5, align 8, !tbaa !8
  store i32 %1, ptr %6, align 4, !tbaa !15
  store ptr %2, ptr %7, align 8, !tbaa !8
  store ptr %3, ptr %8, align 8, !tbaa !8
  %9 = load ptr, ptr %5, align 8, !tbaa !8
  %10 = load i32, ptr %6, align 4, !tbaa !15
  %11 = load ptr, ptr %7, align 8, !tbaa !8
  %12 = load ptr, ptr %8, align 8, !tbaa !8
  %13 = load ptr, ptr %5, align 8, !tbaa !8
  %14 = getelementptr inbounds nuw %struct.PySocketSockObject, ptr %13, i32 0, i32 6
  %15 = load i64, ptr %14, align 8, !tbaa !111
  %16 = call i32 @sock_call_ex(ptr noundef %9, i32 noundef %10, ptr noundef %11, ptr noundef %12, i32 noundef 0, ptr noundef null, i64 noundef %15)
  ret i32 %16
}

; Function Attrs: nounwind uwtable
define internal ptr @sock_sendto(ptr noundef %0, ptr noundef %1) #0 {
  %3 = alloca ptr, align 8
  %4 = alloca ptr, align 8
  %5 = alloca ptr, align 8
  %6 = alloca ptr, align 8
  %7 = alloca %struct.Py_buffer, align 8
  %8 = alloca ptr, align 8
  %9 = alloca i64, align 8
  %10 = alloca %union.sock_addr, align 8
  %11 = alloca i32, align 4
  %12 = alloca i32, align 4
  %13 = alloca %struct.sock_sendto, align 8
  %14 = alloca i32, align 4
  store ptr %0, ptr %4, align 8, !tbaa !3
  store ptr %1, ptr %5, align 8, !tbaa !3
  call void @llvm.lifetime.start.p0(i64 8, ptr %6) #10
  %15 = load ptr, ptr %4, align 8, !tbaa !3
  store ptr %15, ptr %6, align 8, !tbaa !8
  call void @llvm.lifetime.start.p0(i64 80, ptr %7) #10
  call void @llvm.lifetime.start.p0(i64 8, ptr %8) #10
  call void @llvm.lifetime.start.p0(i64 8, ptr %9) #10
  call void @llvm.lifetime.start.p0(i64 128, ptr %10) #10
  call void @llvm.lifetime.start.p0(i64 4, ptr %11) #10
  call void @llvm.lifetime.start.p0(i64 4, ptr %12) #10
  call void @llvm.lifetime.start.p0(i64 40, ptr %13) #10
  store i32 0, ptr %12, align 4, !tbaa !15
  %16 = load ptr, ptr %5, align 8, !tbaa !3
  %17 = call i64 @PyTuple_Size(ptr noundef %16)
  store i64 %17, ptr %9, align 8, !tbaa !52
  %18 = load i64, ptr %9, align 8, !tbaa !52
  switch i64 %18, label %31 [
    i64 2, label %19
    i64 3, label %25
  ]

19:                                               ; preds = %2
  %20 = load ptr, ptr %5, align 8, !tbaa !3
  %21 = call i32 (ptr, ptr, ...) @PyArg_ParseTuple(ptr noundef %20, ptr noundef @.str.620, ptr noundef %7, ptr noundef %8)
  %22 = icmp ne i32 %21, 0
  br i1 %22, label %24, label %23

23:                                               ; preds = %19
  store ptr null, ptr %3, align 8
  store i32 1, ptr %14, align 4
  br label %67

24:                                               ; preds = %19
  br label %35

25:                                               ; preds = %2
  %26 = load ptr, ptr %5, align 8, !tbaa !3
  %27 = call i32 (ptr, ptr, ...) @PyArg_ParseTuple(ptr noundef %26, ptr noundef @.str.621, ptr noundef %7, ptr noundef %12, ptr noundef %8)
  %28 = icmp ne i32 %27, 0
  br i1 %28, label %30, label %29

29:                                               ; preds = %25
  store ptr null, ptr %3, align 8
  store i32 1, ptr %14, align 4
  br label %67

30:                                               ; preds = %25
  br label %35

31:                                               ; preds = %2
  %32 = load ptr, ptr @PyExc_TypeError, align 8, !tbaa !3
  %33 = load i64, ptr %9, align 8, !tbaa !52
  %34 = call ptr (ptr, ptr, ...) @PyErr_Format(ptr noundef %32, ptr noundef @.str.622, i64 noundef %33)
  store ptr null, ptr %3, align 8
  store i32 1, ptr %14, align 4
  br label %67

35:                                               ; preds = %30, %24
  %36 = load ptr, ptr %6, align 8, !tbaa !8
  %37 = load ptr, ptr %8, align 8, !tbaa !3
  %38 = call i32 @getsockaddrarg(ptr noundef %36, ptr noundef %37, ptr noundef %10, ptr noundef %11, ptr noundef @.str.546)
  %39 = icmp ne i32 %38, 0
  br i1 %39, label %41, label %40

40:                                               ; preds = %35
  call void @PyBuffer_Release(ptr noundef %7)
  store ptr null, ptr %3, align 8
  store i32 1, ptr %14, align 4
  br label %67

41:                                               ; preds = %35
  %42 = load ptr, ptr %6, align 8, !tbaa !8
  %43 = load ptr, ptr %8, align 8, !tbaa !3
  %44 = call i32 (ptr, ptr, ...) @PySys_Audit(ptr noundef @.str.623, ptr noundef @.str.562, ptr noundef %42, ptr noundef %43)
  %45 = icmp slt i32 %44, 0
  br i1 %45, label %46, label %47

46:                                               ; preds = %41
  store ptr null, ptr %3, align 8
  store i32 1, ptr %14, align 4
  br label %67

47:                                               ; preds = %41
  %48 = getelementptr inbounds nuw %struct.Py_buffer, ptr %7, i32 0, i32 0
  %49 = load ptr, ptr %48, align 8, !tbaa !36
  %50 = getelementptr inbounds nuw %struct.sock_sendto, ptr %13, i32 0, i32 0
  store ptr %49, ptr %50, align 8, !tbaa !190
  %51 = getelementptr inbounds nuw %struct.Py_buffer, ptr %7, i32 0, i32 2
  %52 = load i64, ptr %51, align 8, !tbaa !39
  %53 = getelementptr inbounds nuw %struct.sock_sendto, ptr %13, i32 0, i32 1
  store i64 %52, ptr %53, align 8, !tbaa !192
  %54 = load i32, ptr %12, align 4, !tbaa !15
  %55 = getelementptr inbounds nuw %struct.sock_sendto, ptr %13, i32 0, i32 2
  store i32 %54, ptr %55, align 8, !tbaa !193
  %56 = load i32, ptr %11, align 4, !tbaa !15
  %57 = getelementptr inbounds nuw %struct.sock_sendto, ptr %13, i32 0, i32 3
  store i32 %56, ptr %57, align 4, !tbaa !194
  %58 = getelementptr inbounds nuw %struct.sock_sendto, ptr %13, i32 0, i32 4
  store ptr %10, ptr %58, align 8, !tbaa !195
  %59 = load ptr, ptr %6, align 8, !tbaa !8
  %60 = call i32 @sock_call(ptr noundef %59, i32 noundef 1, ptr noundef @sock_sendto_impl, ptr noundef %13)
  %61 = icmp slt i32 %60, 0
  br i1 %61, label %62, label %63

62:                                               ; preds = %47
  call void @PyBuffer_Release(ptr noundef %7)
  store ptr null, ptr %3, align 8
  store i32 1, ptr %14, align 4
  br label %67

63:                                               ; preds = %47
  call void @PyBuffer_Release(ptr noundef %7)
  %64 = getelementptr inbounds nuw %struct.sock_sendto, ptr %13, i32 0, i32 5
  %65 = load i64, ptr %64, align 8, !tbaa !196
  %66 = call ptr @PyLong_FromSsize_t(i64 noundef %65)
  store ptr %66, ptr %3, align 8
  store i32 1, ptr %14, align 4
  br label %67

67:                                               ; preds = %63, %62, %46, %40, %31, %29, %23
  call void @llvm.lifetime.end.p0(i64 40, ptr %13) #10
  call void @llvm.lifetime.end.p0(i64 4, ptr %12) #10
  call void @llvm.lifetime.end.p0(i64 4, ptr %11) #10
  call void @llvm.lifetime.end.p0(i64 128, ptr %10) #10
  call void @llvm.lifetime.end.p0(i64 8, ptr %9) #10
  call void @llvm.lifetime.end.p0(i64 8, ptr %8) #10
  call void @llvm.lifetime.end.p0(i64 80, ptr %7) #10
  call void @llvm.lifetime.end.p0(i64 8, ptr %6) #10
  %68 = load ptr, ptr %3, align 8
  ret ptr %68
}