; Function Attrs: nounwind uwtable
define internal ptr @sock_sendto(ptr noundef %0, ptr noundef %1) #0 {
  %3 = alloca %struct.Py_buffer, align 8
  %4 = alloca ptr, align 8
  %5 = alloca %union.sock_addr, align 8
  %6 = alloca i32, align 4
  %7 = alloca i32, align 4
  %8 = alloca %struct.sock_sendto, align 8
  call void @llvm.lifetime.start.p0(i64 80, ptr nonnull %3) #13
  call void @llvm.lifetime.start.p0(i64 8, ptr nonnull %4) #13
  call void @llvm.lifetime.start.p0(i64 128, ptr nonnull %5) #13
  call void @llvm.lifetime.start.p0(i64 4, ptr nonnull %6) #13
  call void @llvm.lifetime.start.p0(i64 4, ptr nonnull %7) #13
  call void @llvm.lifetime.start.p0(i64 40, ptr nonnull %8) #13
  store i32 0, ptr %7, align 4, !tbaa !35
  %9 = tail call i64 @PyTuple_Size(ptr noundef %1) #13
  switch i64 %9, label %14 [
    i64 2, label %10
    i64 3, label %12
  ]

10:                                               ; preds = %2
  %11 = call i32 (ptr, ptr, ...) @PyArg_ParseTuple(ptr noundef %1, ptr noundef nonnull @.str.620, ptr noundef nonnull %3, ptr noundef nonnull %4) #13
  %.not9 = icmp eq i32 %11, 0
  br i1 %.not9, label %43, label %17

12:                                               ; preds = %2
  %13 = call i32 (ptr, ptr, ...) @PyArg_ParseTuple(ptr noundef %1, ptr noundef nonnull @.str.621, ptr noundef nonnull %3, ptr noundef nonnull %7, ptr noundef nonnull %4) #13
  %.not = icmp eq i32 %13, 0
  br i1 %.not, label %43, label %17

14:                                               ; preds = %2
  %15 = load ptr, ptr @PyExc_TypeError, align 8, !tbaa !19
  %16 = tail call ptr (ptr, ptr, ...) @PyErr_Format(ptr noundef %15, ptr noundef nonnull @.str.622, i64 noundef %9) #13
  br label %43

17:                                               ; preds = %12, %10
  %18 = load ptr, ptr %4, align 8, !tbaa !19
  %19 = call fastcc i32 @getsockaddrarg(ptr noundef %0, ptr noundef %18, ptr noundef %5, ptr noundef %6, ptr noundef nonnull @.str.546)
  %.not10 = icmp eq i32 %19, 0
  br i1 %.not10, label %20, label %21

20:                                               ; preds = %17
  call void @PyBuffer_Release(ptr noundef nonnull %3) #13
  br label %43

21:                                               ; preds = %17
  %22 = load ptr, ptr %4, align 8, !tbaa !19
  %23 = call i32 (ptr, ptr, ...) @PySys_Audit(ptr noundef nonnull @.str.623, ptr noundef nonnull @.str.562, ptr noundef %0, ptr noundef %22) #13
  %24 = icmp slt i32 %23, 0
  br i1 %24, label %43, label %25

25:                                               ; preds = %21
  %26 = load ptr, ptr %3, align 8, !tbaa !27
  store ptr %26, ptr %8, align 8, !tbaa !157
  %27 = getelementptr inbounds nuw i8, ptr %3, i64 16
  %28 = load i64, ptr %27, align 8, !tbaa !31
  %29 = getelementptr inbounds nuw i8, ptr %8, i64 8
  store i64 %28, ptr %29, align 8, !tbaa !159
  %30 = load i32, ptr %7, align 4, !tbaa !35
  %31 = getelementptr inbounds nuw i8, ptr %8, i64 16
  store i32 %30, ptr %31, align 8, !tbaa !160
  %32 = load i32, ptr %6, align 4, !tbaa !35
  %33 = getelementptr inbounds nuw i8, ptr %8, i64 20
  store i32 %32, ptr %33, align 4, !tbaa !161
  %34 = getelementptr inbounds nuw i8, ptr %8, i64 24
  store ptr %5, ptr %34, align 8, !tbaa !162
  %35 = getelementptr inbounds nuw i8, ptr %0, i64 40
  %36 = load i64, ptr %35, align 8, !tbaa !90
  %37 = call fastcc range(i32 -1, 1) i32 @sock_call_ex(ptr noundef %0, i32 noundef 1, ptr noundef nonnull @sock_sendto_impl, ptr noundef nonnull %8, i32 noundef 0, ptr noundef null, i64 noundef %36)
  %38 = icmp slt i32 %37, 0
  call void @PyBuffer_Release(ptr noundef nonnull %3) #13
  br i1 %38, label %43, label %39

39:                                               ; preds = %25
  %40 = getelementptr inbounds nuw i8, ptr %8, i64 32
  %41 = load i64, ptr %40, align 8, !tbaa !163
  %42 = call ptr @PyLong_FromSsize_t(i64 noundef %41) #13
  br label %43

43:                                               ; preds = %25, %21, %12, %10, %39, %20, %14
  %.0 = phi ptr [ null, %14 ], [ %42, %39 ], [ null, %20 ], [ null, %10 ], [ null, %12 ], [ null, %21 ], [ null, %25 ]
  call void @llvm.lifetime.end.p0(i64 40, ptr nonnull %8) #13
  call void @llvm.lifetime.end.p0(i64 4, ptr nonnull %7) #13
  call void @llvm.lifetime.end.p0(i64 4, ptr nonnull %6) #13
  call void @llvm.lifetime.end.p0(i64 128, ptr nonnull %5) #13
  call void @llvm.lifetime.end.p0(i64 8, ptr nonnull %4) #13
  call void @llvm.lifetime.end.p0(i64 80, ptr nonnull %3) #13
  ret ptr %.0
}